; Function Attrs: mustprogress nofree norecurse nosync nounwind memory(argmem: readwrite) uwtable
define internal void @_ZN2cvL7iPow64fEPKdPdii(ptr noundef readonly captures(none) %0, ptr noundef writeonly captures(none) %1, i32 noundef %2, i32 noundef %3) #18 {
  %5 = tail call i32 @llvm.abs.i32(i32 %3, i1 true)
  %6 = icmp sgt i32 %2, 0
  br i1 %6, label %.lr.ph34.i, label %_ZN2cvL6iPow_fIdEEvPKT_PS1_ii.exit

.lr.ph34.i:                                       ; preds = %4
  %7 = icmp slt i32 %3, 0
  %8 = icmp samesign ugt i32 %5, 1
  %wide.trip.count55.i = zext nneg i32 %2 to i64
  br i1 %8, label %.lr.ph34.split.us.i, label %.lr.ph34.split.i

.lr.ph34.split.us.i:                              ; preds = %.lr.ph34.i
  br i1 %7, label %.lr.ph.us.us.i, label %.lr.ph.us.i

.lr.ph.us.us.i:                                   ; preds = %.lr.ph34.split.us.i, %._crit_edge.us.us.i
  %indvars.iv52.i = phi i64 [ %indvars.iv.next53.i, %._crit_edge.us.us.i ], [ 0, %.lr.ph34.split.us.i ]
  %9 = getelementptr inbounds nuw double, ptr %0, i64 %indvars.iv52.i
  %10 = load double, ptr %9, align 8, !tbaa !91
  %11 = fdiv double 1.000000e+00, %10
  br label %12

12:                                               ; preds = %12, %.lr.ph.us.us.i
  %.030.us.us.i = phi i32 [ %5, %.lr.ph.us.us.i ], [ %16, %12 ]
  %.129.us.us.i = phi double [ %11, %.lr.ph.us.us.i ], [ %15, %12 ]
  %.02528.us.us.i = phi double [ 1.000000e+00, %.lr.ph.us.us.i ], [ %.126.us.us.i, %12 ]
  %13 = and i32 %.030.us.us.i, 1
  %.not.us.us.i = icmp eq i32 %13, 0
  %14 = fmul double %.129.us.us.i, %.02528.us.us.i
  %.126.us.us.i = select i1 %.not.us.us.i, double %.02528.us.us.i, double %14
  %15 = fmul double %.129.us.us.i, %.129.us.us.i
  %16 = lshr i32 %.030.us.us.i, 1
  %17 = icmp samesign ugt i32 %.030.us.us.i, 3
  br i1 %17, label %12, label %._crit_edge.us.us.i, !llvm.loop !247

._crit_edge.us.us.i:                              ; preds = %12
  %18 = fmul double %15, %.126.us.us.i
  %19 = getelementptr inbounds nuw double, ptr %1, i64 %indvars.iv52.i
  store double %18, ptr %19, align 8, !tbaa !91
  %indvars.iv.next53.i = add nuw nsw i64 %indvars.iv52.i, 1
  %exitcond56.not.i = icmp eq i64 %indvars.iv.next53.i, %wide.trip.count55.i
  br i1 %exitcond56.not.i, label %_ZN2cvL6iPow_fIdEEvPKT_PS1_ii.exit, label %.lr.ph.us.us.i, !llvm.loop !248

.lr.ph.us.i:                                      ; preds = %.lr.ph34.split.us.i, %._crit_edge.us.i
  %indvars.iv47.i = phi i64 [ %indvars.iv.next48.i, %._crit_edge.us.i ], [ 0, %.lr.ph34.split.us.i ]
  %20 = getelementptr inbounds nuw double, ptr %0, i64 %indvars.iv47.i
  %21 = load double, ptr %20, align 8, !tbaa !91
  br label %22

22:                                               ; preds = %22, %.lr.ph.us.i
  %.030.us.i = phi i32 [ %5, %.lr.ph.us.i ], [ %26, %22 ]
  %.129.us.i = phi double [ %21, %.lr.ph.us.i ], [ %25, %22 ]
  %.02528.us.i = phi double [ 1.000000e+00, %.lr.ph.us.i ], [ %.126.us.i, %22 ]
  %23 = and i32 %.030.us.i, 1
  %.not.us.i = icmp eq i32 %23, 0
  %24 = fmul double %.129.us.i, %.02528.us.i
  %.126.us.i = select i1 %.not.us.i, double %.02528.us.i, double %24
  %25 = fmul double %.129.us.i, %.129.us.i
  %26 = lshr i32 %.030.us.i, 1
  %27 = icmp samesign ugt i32 %.030.us.i, 3
  br i1 %27, label %22, label %._crit_edge.us.i, !llvm.loop !247

._crit_edge.us.i:                                 ; preds = %22
  %28 = fmul double %25, %.126.us.i
  %29 = getelementptr inbounds nuw double, ptr %1, i64 %indvars.iv47.i
  store double %28, ptr %29, align 8, !tbaa !91
  %indvars.iv.next48.i = add nuw nsw i64 %indvars.iv47.i, 1
  %exitcond51.not.i = icmp eq i64 %indvars.iv.next48.i, %wide.trip.count55.i
  br i1 %exitcond51.not.i, label %_ZN2cvL6iPow_fIdEEvPKT_PS1_ii.exit, label %.lr.ph.us.i, !llvm.loop !248

.lr.ph34.split.i:                                 ; preds = %.lr.ph34.i
  br i1 %7, label %.lr.ph34.split.split.us.i, label %.lr.ph34.split.split.i

.lr.ph34.split.split.us.i:                        ; preds = %.lr.ph34.split.i, %.lr.ph34.split.split.us.i
  %indvars.iv42.i = phi i64 [ %indvars.iv.next43.i, %.lr.ph34.split.split.us.i ], [ 0, %.lr.ph34.split.i ]
  %30 = getelementptr inbounds nuw double, ptr %0, i64 %indvars.iv42.i
  %31 = load double, ptr %30, align 8, !tbaa !91
  %32 = fdiv double 1.000000e+00, %31
  %33 = getelementptr inbounds nuw double, ptr %1, i64 %indvars.iv42.i
  store double %32, ptr %33, align 8, !tbaa !91
  %indvars.iv.next43.i = add nuw nsw i64 %indvars.iv42.i, 1
  %exitcond46.not.i = icmp eq i64 %indvars.iv.next43.i, %wide.trip.count55.i
  br i1 %exitcond46.not.i, label %_ZN2cvL6iPow_fIdEEvPKT_PS1_ii.exit, label %.lr.ph34.split.split.us.i, !llvm.loop !248

.lr.ph34.split.split.i:                           ; preds = %.lr.ph34.split.i, %.lr.ph34.split.split.i
  %indvars.iv.i = phi i64 [ %indvars.iv.next.i, %.lr.ph34.split.split.i ], [ 0, %.lr.ph34.split.i ]
  %34 = getelementptr inbounds nuw double, ptr %0, i64 %indvars.iv.i
  %35 = load double, ptr %34, align 8, !tbaa !91
  %36 = getelementptr inbounds nuw double, ptr %1, i64 %indvars.iv.i
  store double %35, ptr %36, align 8, !tbaa !91
  %indvars.iv.next.i = add nuw nsw i64 %indvars.iv.i, 1
  %exitcond.not.i = icmp eq i64 %indvars.iv.next.i, %wide.trip.count55.i
  br i1 %exitcond.not.i, label %_ZN2cvL6iPow_fIdEEvPKT_PS1_ii.exit, label %.lr.ph34.split.split.i, !llvm.loop !248

_ZN2cvL6iPow_fIdEEvPKT_PS1_ii.exit:               ; preds = %.lr.ph34.split.split.i, %.lr.ph34.split.split.us.i, %._crit_edge.us.i, %._crit_edge.us.us.i, %4
  ret void
}